Certificate:
    Data:
        Version: 3 (0x2)
        Serial Number: 1 (0x1)
        Signature Algorithm: sha1WithRSAEncryption
        Issuer: DC=org, DC=simple, O=Simple Inc, OU=Simple Root CA, CN=Simple Root CA
        Validity
            Not Before: Aug 24 16:44:20 2025 GMT
            Not After : Aug 24 16:44:20 2035 GMT
        Subject: DC=org, DC=simple, O=Simple Inc, OU=Simple Root CA, CN=Simple Root CA
        Subject Public Key Info:
            Public Key Algorithm: rsaEncryption
                Public-Key: (2048 bit)
                Modulus:
                    00:90:59:08:13:96:07:fa:f1:ca:88:b5:12:f3:d9:
                    9e:52:ee:7e:d3:6f:57:bd:b7:1d:a6:ad:b9:19:2f:
                    3b:a8:05:db:7d:57:9a:1a:c5:03:10:97:db:76:8d:
                    d7:6e:2a:71:c8:24:13:12:d4:24:fc:bc:20:1e:ec:
                    9a:b2:bf:90:99:de:7d:49:54:be:9f:8c:f7:ff:eb:
                    19:2d:61:b5:48:4f:0b:db:7c:e1:c3:33:2a:7c:f9:
                    6d:19:58:ba:12:01:12:5e:96:ea:f0:93:a1:9d:d6:
                    7e:ad:30:30:87:a9:d4:22:04:cf:e5:99:22:38:85:
                    3d:34:94:e3:62:02:22:48:80:7f:cf:fa:ad:70:fd:
                    90:d8:e5:9c:ff:86:8e:85:5f:2b:37:bb:05:4d:4b:
                    51:43:23:ef:50:93:e0:ab:0e:69:f5:d2:ab:47:2b:
                    b8:eb:31:77:c3:fb:2a:63:67:e6:d8:b1:49:fa:ee:
                    29:a7:bf:e8:08:39:31:85:80:7a:73:d8:53:cd:6d:
                    6f:7d:bb:85:57:2c:73:17:25:28:82:63:71:f1:c9:
                    60:89:73:cc:ff:94:ef:6a:35:0a:b8:ee:a1:3e:6b:
                    60:b0:87:d7:ab:7d:5e:88:88:ec:55:6c:53:f6:57:
                    f4:21:79:cd:19:5b:24:73:89:c2:ab:50:41:ac:58:
                    6d:93
                Exponent: 65537 (0x10001)
        X509v3 extensions:
            X509v3 Key Usage: critical
                Certificate Sign, CRL Sign
            X509v3 Basic Constraints: critical
                CA:TRUE
            X509v3 Subject Key Identifier: 
                B8:62:B2:EA:5E:62:0F:5C:AA:83:F6:66:13:FD:93:B1:DF:ED:60:74
            X509v3 Authority Key Identifier: 
                B8:62:B2:EA:5E:62:0F:5C:AA:83:F6:66:13:FD:93:B1:DF:ED:60:74
    Signature Algorithm: sha1WithRSAEncryption
    Signature Value:
        30:e8:c8:5e:5c:87:4e:61:23:95:33:24:df:d7:c8:e9:79:e1:
        ad:25:c1:82:62:93:92:48:09:68:98:e3:6f:6a:8d:43:a4:8e:
        ff:e0:ac:57:f2:54:5e:7c:9a:ac:99:c6:fc:69:56:88:f6:b6:
        cc:37:b0:c4:6b:bd:64:99:c7:4b:99:bc:f3:c1:0f:b6:0b:e7:
        2b:6b:ca:3d:4e:85:36:cf:9f:54:12:88:bf:d7:c1:a2:9d:5e:
        31:3b:cd:a4:1c:62:9e:07:17:76:b8:07:91:3e:ec:3e:21:6c:
        a2:8f:18:46:b7:d5:e6:25:c7:3a:da:64:62:34:95:df:ae:68:
        1f:73:65:30:5d:80:75:15:2b:c5:83:58:fe:86:ac:e1:13:47:
        d8:22:df:fb:43:d7:10:47:0a:eb:b8:ee:5d:b9:77:a4:db:26:
        45:94:6d:01:45:88:3d:17:d8:65:16:7d:2b:eb:81:1c:15:be:
        f0:16:e5:79:3d:52:99:dd:b7:d8:a5:18:c4:5d:73:d8:9a:c5:
        12:89:14:ad:29:0a:d7:d6:0d:80:83:42:5f:63:f8:84:1d:d6:
        c7:30:be:ca:d6:c8:78:9c:be:9e:ca:5f:17:ec:fb:92:2c:9f:
        76:72:2e:01:93:c6:64:af:10:54:e7:a1:e5:40:29:56:84:e4:
        c4:c7:d5:65
-----BEGIN CERTIFICATE-----
MIIDxjCCAq6gAwIBAgIBATANBgkqhkiG9w0BAQUFADB0MRMwEQYKCZImiZPyLGQB
GRYDb3JnMRYwFAYKCZImiZPyLGQBGRYGc2ltcGxlMRMwEQYDVQQKDApTaW1wbGUg
SW5jMRcwFQYDVQQLDA5TaW1wbGUgUm9vdCBDQTEXMBUGA1UEAwwOU2ltcGxlIFJv
b3QgQ0EwHhcNMjUwODI0MTY0NDIwWhcNMzUwODI0MTY0NDIwWjB0MRMwEQYKCZIm
iZPyLGQBGRYDb3JnMRYwFAYKCZImiZPyLGQBGRYGc2ltcGxlMRMwEQYDVQQKDApT
aW1wbGUgSW5jMRcwFQYDVQQLDA5TaW1wbGUgUm9vdCBDQTEXMBUGA1UEAwwOU2lt
cGxlIFJvb3QgQ0EwggEiMA0GCSqGSIb3DQEBAQUAA4IBDwAwggEKAoIBAQCQWQgT
lgf68cqItRLz2Z5S7n7Tb1e9tx2mrbkZLzuoBdt9V5oaxQMQl9t2jdduKnHIJBMS
1CT8vCAe7Jqyv5CZ3n1JVL6fjPf/6xktYbVITwvbfOHDMyp8+W0ZWLoSARJelurw
k6Gd1n6tMDCHqdQiBM/lmSI4hT00lONiAiJIgH/P+q1w/ZDY5Zz/ho6FXys3uwVN
S1FDI+9Qk+CrDmn10qtHK7jrMXfD+ypjZ+bYsUn67imnv+gIOTGFgHpz2FPNbW99
u4VXLHMXJSiCY3HxyWCJc8z/lO9qNQq47qE+a2Cwh9erfV6IiOxVbFP2V/Qhec0Z
WyRzicKrUEGsWG2TAgMBAAGjYzBhMA4GA1UdDwEB/wQEAwIBBjAPBgNVHRMBAf8E
BTADAQH/MB0GA1UdDgQWBBS4YrLqXmIPXKqD9mYT/ZOx3+1gdDAfBgNVHSMEGDAW
gBS4YrLqXmIPXKqD9mYT/ZOx3+1gdDANBgkqhkiG9w0BAQUFAAOCAQEAMOjIXlyH
TmEjlTMk39fI6XnhrSXBgmKTkkgJaJjjb2qNQ6SO/+CsV/JUXnyarJnG/GlWiPa2
zDewxGu9ZJnHS5m888EPtgvnK2vKPU6FNs+fVBKIv9fBop1eMTvNpBxingcXdrgH
kT7sPiFsoo8YRrfV5iXHOtpkYjSV365oH3NlMF2AdRUrxYNY/oas4RNH2CLf+0PX
EEcK67juXbl3pNsmRZRtAUWIPRfYZRZ9K+uBHBW+8BbleT1Smd232KUYxF1z2JrF
EokUrSkK19YNgINCX2P4hB3WxzC+ytbIeJy+nspfF+z7kiyfdnIuAZPGZK8QVOeh
5UApVoTkxMfVZQ==
-----END CERTIFICATE-----
