Certificate:
    Data:
        Version: 3 (0x2)
        Serial Number: 1 (0x1)
        Signature Algorithm: sha1WithRSAEncryption
        Issuer: DC=org, DC=simple, O=Simple Inc, OU=Simple Signing CA, CN=Simple Signing CA
        Validity
            Not Before: Aug 24 16:46:55 2025 GMT
            Not After : Aug 22 16:46:55 2035 GMT
        Subject: DC=org, DC=simple, O=Simple Inc, CN=www.simple.org
        Subject Public Key Info:
            Public Key Algorithm: rsaEncryption
                Public-Key: (2048 bit)
                Modulus:
                    00:a3:af:93:15:b9:bb:e6:04:db:c4:0a:33:0c:dd:
                    52:9c:19:62:3e:c0:47:e1:4b:9c:3f:bc:40:f2:1a:
                    37:c3:75:70:64:fb:c2:01:1b:08:f4:28:87:a8:02:
                    3f:70:2e:71:45:95:05:27:00:6d:05:f3:eb:b4:19:
                    4f:7e:b1:34:c6:94:f8:c5:e8:93:3a:95:26:2c:51:
                    92:f7:38:88:a6:c9:44:63:04:17:84:a7:54:b8:2f:
                    d7:05:9d:f0:41:df:87:ce:07:fd:02:bd:6e:44:01:
                    94:bd:34:a8:20:93:ac:ad:65:05:1b:17:bb:d7:af:
                    5f:43:4d:22:93:a6:72:83:aa:47:4a:c4:5a:41:e2:
                    d3:be:05:e8:b8:94:d1:a8:10:aa:0e:6f:c3:bd:52:
                    c5:a2:04:92:6c:a6:a3:8c:bf:a3:2e:f1:37:67:ae:
                    21:12:12:14:84:85:82:e4:69:3a:b6:72:27:86:2f:
                    ba:33:fb:98:3e:b7:d8:3c:87:68:06:0f:cd:24:3f:
                    51:48:1c:f1:ec:bb:e7:48:03:d5:93:75:58:50:0e:
                    c8:f2:ba:7b:e5:50:f5:48:43:e1:3d:80:0a:c4:76:
                    92:37:ac:f5:90:74:91:bc:5f:46:84:d0:20:c5:71:
                    99:ba:c9:a0:f6:95:da:64:d6:e6:8c:f3:0d:61:79:
                    ad:ad
                Exponent: 65537 (0x10001)
        X509v3 extensions:
            X509v3 Key Usage: critical
                Digital Signature, Key Encipherment
            X509v3 Basic Constraints: 
                CA:FALSE
            X509v3 Extended Key Usage: 
                TLS Web Server Authentication, TLS Web Client Authentication
            X509v3 Subject Key Identifier: 
                8D:DF:BF:68:31:BC:0C:62:F9:FC:86:2F:21:D8:D4:64:E9:A0:0E:8E
            X509v3 Authority Key Identifier: 
                C8:63:D5:AD:28:36:B0:4F:DE:1B:04:56:B2:C9:D4:8F:05:02:53:2F
            X509v3 Subject Alternative Name: 
                DNS:www.simple.org
    Signature Algorithm: sha1WithRSAEncryption
    Signature Value:
        a8:ce:f7:4a:27:78:35:38:86:42:db:2f:be:04:dd:98:a9:fc:
        7b:21:03:74:96:29:2b:a9:7b:b7:d7:cf:2d:b5:e8:6e:61:17:
        df:0d:ca:a4:37:bf:ee:d0:a3:57:5d:3d:d7:1a:0d:d8:26:e6:
        9b:85:df:c5:15:84:5d:a5:b2:8a:85:f4:3a:01:b7:e7:22:a9:
        27:72:63:60:4b:cb:e6:42:8f:fe:4d:cb:09:37:0c:75:dd:0f:
        b9:82:ec:53:49:76:d0:b7:dc:64:d8:8c:ba:00:2f:cb:9c:04:
        68:ab:81:dd:8f:71:9e:d2:8f:65:a6:33:f8:6f:3b:26:e0:02:
        f4:e0:68:59:ad:f8:8c:9c:4b:a2:99:19:55:15:48:4f:ab:78:
        c2:ef:38:7a:a9:b2:f7:20:b5:b5:09:1d:b0:34:e2:f9:84:73:
        e3:45:88:44:98:67:a4:6b:a0:d1:d5:b0:94:5a:b1:74:6b:5f:
        1d:69:7c:42:26:ab:55:88:08:f4:0f:2e:c6:09:9f:21:da:94:
        0b:14:54:ba:00:3b:02:b6:07:b9:53:92:7c:0e:db:7e:5e:7e:
        c0:61:26:a0:4f:b2:bb:a8:d3:f6:f3:3a:99:8a:66:64:bc:29:
        49:b2:e5:54:99:cc:e1:d0:24:a3:f9:fb:23:88:7c:39:02:5c:
        89:ee:70:04
-----BEGIN CERTIFICATE-----
MIID6TCCAtGgAwIBAgIBATANBgkqhkiG9w0BAQUFADB6MRMwEQYKCZImiZPyLGQB
GRYDb3JnMRYwFAYKCZImiZPyLGQBGRYGc2ltcGxlMRMwEQYDVQQKDApTaW1wbGUg
SW5jMRowGAYDVQQLDBFTaW1wbGUgU2lnbmluZyBDQTEaMBgGA1UEAwwRU2ltcGxl
IFNpZ25pbmcgQ0EwHhcNMjUwODI0MTY0NjU1WhcNMzUwODIyMTY0NjU1WjBbMRMw
EQYKCZImiZPyLGQBGRYDb3JnMRYwFAYKCZImiZPyLGQBGRYGc2ltcGxlMRMwEQYD
VQQKDApTaW1wbGUgSW5jMRcwFQYDVQQDDA53d3cuc2ltcGxlLm9yZzCCASIwDQYJ
KoZIhvcNAQEBBQADggEPADCCAQoCggEBAKOvkxW5u+YE28QKMwzdUpwZYj7AR+FL
nD+8QPIaN8N1cGT7wgEbCPQoh6gCP3AucUWVBScAbQXz67QZT36xNMaU+MXokzqV
JixRkvc4iKbJRGMEF4SnVLgv1wWd8EHfh84H/QK9bkQBlL00qCCTrK1lBRsXu9ev
X0NNIpOmcoOqR0rEWkHi074F6LiU0agQqg5vw71SxaIEkmymo4y/oy7xN2euIRIS
FISFguRpOrZyJ4YvujP7mD632DyHaAYPzSQ/UUgc8ey750gD1ZN1WFAOyPK6e+VQ
9UhD4T2ACsR2kjes9ZB0kbxfRoTQIMVxmbrJoPaV2mTW5ozzDWF5ra0CAwEAAaOB
mDCBlTAOBgNVHQ8BAf8EBAMCBaAwCQYDVR0TBAIwADAdBgNVHSUEFjAUBggrBgEF
BQcDAQYIKwYBBQUHAwIwHQYDVR0OBBYEFI3fv2gxvAxi+fyGLyHY1GTpoA6OMB8G
A1UdIwQYMBaAFMhj1a0oNrBP3hsEVrLJ1I8FAlMvMBkGA1UdEQQSMBCCDnd3dy5z
aW1wbGUub3JnMA0GCSqGSIb3DQEBBQUAA4IBAQCozvdKJ3g1OIZC2y++BN2Yqfx7
IQN0likrqXu3188ttehuYRffDcqkN7/u0KNXXT3XGg3YJuabhd/FFYRdpbKKhfQ6
AbfnIqkncmNgS8vmQo/+TcsJNwx13Q+5guxTSXbQt9xk2Iy6AC/LnARoq4Hdj3Ge
0o9lpjP4bzsm4AL04GhZrfiMnEuimRlVFUhPq3jC7zh6qbL3ILW1CR2wNOL5hHPj
RYhEmGeka6DR1bCUWrF0a18daXxCJqtViAj0Dy7GCZ8h2pQLFFS6ADsCtge5U5J8
Dtt+Xn7AYSagT7K7qNP28zqZimZkvClJsuVUmczh0CSj+fsjiHw5AlyJ7nAE
-----END CERTIFICATE-----
