Certificate:
    Data:
        Version: 3 (0x2)
        Serial Number: 1 (0x1)
        Signature Algorithm: sha256WithRSAEncryption
        Issuer: DC=org, DC=simple, O=Simple Inc, OU=Simple Signing CA, CN=Simple Signing CA
        Validity
            Not Before: Aug 25 03:01:53 2025 GMT
            Not After : Aug 23 03:01:53 2035 GMT
        Subject: DC=org, DC=simple, O=Simple Inc, CN=Simple User
        Subject Public Key Info:
            Public Key Algorithm: rsaEncryption
                Public-Key: (2048 bit)
                Modulus:
                    00:c0:fa:98:fa:05:ad:f5:92:51:70:16:7d:03:51:
                    5f:45:0d:1d:64:58:e0:6f:5d:aa:e6:b4:b1:93:c8:
                    94:4f:e8:27:78:64:7d:14:ef:60:a7:5c:8e:05:87:
                    a6:63:72:2b:30:78:ed:87:96:84:86:3e:af:e6:6f:
                    62:ad:85:c8:63:65:55:52:bf:86:18:88:72:4e:0d:
                    d2:aa:26:11:cd:ac:44:ef:28:cd:90:1d:3b:d3:03:
                    da:e5:91:96:84:a8:1a:ff:7a:c1:00:b4:30:7d:34:
                    3c:15:8c:38:37:a6:0c:89:ef:65:85:24:c1:cb:79:
                    02:bd:4b:5e:3f:96:e0:d1:3c:f5:01:fc:0b:19:0b:
                    69:91:9b:7f:0e:8f:16:87:76:93:f6:66:dd:42:cd:
                    6d:94:9c:55:3f:b8:b8:f4:94:a4:91:f6:6d:0d:31:
                    9b:8c:a4:3c:47:46:a2:a8:dd:06:6a:4d:e7:55:a7:
                    df:3c:15:89:9b:ab:1e:8a:1a:74:93:33:7e:d6:95:
                    8f:44:1e:0f:ed:31:66:18:03:df:84:01:78:c0:77:
                    67:98:1a:d1:07:1b:a1:95:7b:dd:60:62:6f:a5:66:
                    98:72:0e:b9:6f:bb:b6:7f:99:fb:e7:f1:1c:b3:e7:
                    ef:83:d2:d1:c0:00:9b:f4:a2:c0:43:99:ed:a7:01:
                    1d:dd
                Exponent: 65537 (0x10001)
        X509v3 extensions:
            X509v3 Key Usage: critical
                Digital Signature
            X509v3 Basic Constraints: 
                CA:FALSE
            X509v3 Extended Key Usage: 
                TLS Web Client Authentication
            X509v3 Subject Key Identifier: 
                6B:2A:E4:F3:4B:FD:DB:ED:86:F2:00:A7:DA:26:7C:03:A7:D7:2F:28
            X509v3 Authority Key Identifier: 
                2C:BF:83:12:24:F5:47:A5:C6:45:C4:60:CE:1D:42:3D:A5:99:64:DC
            X509v3 Subject Alternative Name: 
                email:simpleuser@simple.org
    Signature Algorithm: sha256WithRSAEncryption
    Signature Value:
        d0:c2:7e:af:bc:a9:10:71:0b:20:3f:7f:38:fe:06:1d:dc:31:
        c2:08:8e:28:19:40:5d:43:c2:18:e3:69:5d:97:d1:a7:85:6a:
        5c:6f:38:a6:94:e0:54:db:f1:10:39:ab:b7:4c:b0:d4:d2:a5:
        5f:4e:a6:58:4d:12:45:56:9b:e3:ae:a8:ac:51:b0:3f:f7:1c:
        43:a7:14:1b:ce:fa:2f:4f:05:34:82:72:e3:3b:66:b4:a9:a2:
        19:37:66:58:69:54:cf:a9:f7:fa:f8:81:f7:14:77:ba:1a:f2:
        24:b2:57:1a:c6:e2:b3:6c:43:ce:03:98:94:73:58:23:26:54:
        42:8a:f4:28:3b:82:80:c8:2b:12:fe:0e:00:4f:c7:ec:bd:62:
        d4:d3:02:09:09:9e:64:07:82:02:f7:43:2d:16:2b:1e:5e:3c:
        89:fb:37:3f:e6:0f:05:16:f8:47:db:8b:0d:db:19:71:5a:21:
        43:bc:c8:18:4b:1d:06:81:94:5a:9d:af:f8:51:f6:9f:10:61:
        b0:d0:7e:3b:fa:14:5e:32:09:00:1c:72:ae:9f:ee:95:b0:3a:
        7e:f1:53:be:3c:ca:a2:61:57:91:37:31:25:ca:2a:00:17:00:
        ea:18:a6:66:f5:06:14:68:05:a5:9b:85:37:93:f1:01:66:e7:
        d2:03:29:ee
-----BEGIN CERTIFICATE-----
MIID4zCCAsugAwIBAgIBATANBgkqhkiG9w0BAQsFADB6MRMwEQYKCZImiZPyLGQB
GRYDb3JnMRYwFAYKCZImiZPyLGQBGRYGc2ltcGxlMRMwEQYDVQQKDApTaW1wbGUg
SW5jMRowGAYDVQQLDBFTaW1wbGUgU2lnbmluZyBDQTEaMBgGA1UEAwwRU2ltcGxl
IFNpZ25pbmcgQ0EwHhcNMjUwODI1MDMwMTUzWhcNMzUwODIzMDMwMTUzWjBYMRMw
EQYKCZImiZPyLGQBGRYDb3JnMRYwFAYKCZImiZPyLGQBGRYGc2ltcGxlMRMwEQYD
VQQKDApTaW1wbGUgSW5jMRQwEgYDVQQDDAtTaW1wbGUgVXNlcjCCASIwDQYJKoZI
hvcNAQEBBQADggEPADCCAQoCggEBAMD6mPoFrfWSUXAWfQNRX0UNHWRY4G9dqua0
sZPIlE/oJ3hkfRTvYKdcjgWHpmNyKzB47YeWhIY+r+ZvYq2FyGNlVVK/hhiIck4N
0qomEc2sRO8ozZAdO9MD2uWRloSoGv96wQC0MH00PBWMODemDInvZYUkwct5Ar1L
Xj+W4NE89QH8CxkLaZGbfw6PFod2k/Zm3ULNbZScVT+4uPSUpJH2bQ0xm4ykPEdG
oqjdBmpN51Wn3zwViZurHooadJMzftaVj0QeD+0xZhgD34QBeMB3Z5ga0QcboZV7
3WBib6VmmHIOuW+7tn+Z++fxHLPn74PS0cAAm/SiwEOZ7acBHd0CAwEAAaOBlTCB
kjAOBgNVHQ8BAf8EBAMCB4AwCQYDVR0TBAIwADATBgNVHSUEDDAKBggrBgEFBQcD
AjAdBgNVHQ4EFgQUayrk80v92+2G8gCn2iZ8A6fXLygwHwYDVR0jBBgwFoAULL+D
EiT1R6XGRcRgzh1CPaWZZNwwIAYDVR0RBBkwF4EVc2ltcGxldXNlckBzaW1wbGUu
b3JnMA0GCSqGSIb3DQEBCwUAA4IBAQDQwn6vvKkQcQsgP384/gYd3DHCCI4oGUBd
Q8IY42ldl9GnhWpcbzimlOBU2/EQOau3TLDU0qVfTqZYTRJFVpvjrqisUbA/9xxD
pxQbzvovTwU0gnLjO2a0qaIZN2ZYaVTPqff6+IH3FHe6GvIkslcaxuKzbEPOA5iU
c1gjJlRCivQoO4KAyCsS/g4AT8fsvWLU0wIJCZ5kB4IC90MtFiseXjyJ+zc/5g8F
FvhH24sN2xlxWiFDvMgYSx0GgZRana/4UfafEGGw0H47+hReMgkAHHKun+6VsDp+
8VO+PMqiYVeRNzElyioAFwDqGKZm9QYUaAWlm4U3k/EBZufSAynu
-----END CERTIFICATE-----
