Certificate:
    Data:
        Version: 3 (0x2)
        Serial Number: 2 (0x2)
        Signature Algorithm: sha256WithRSAEncryption
        Issuer: DC=org, DC=simple, O=Simple Inc, OU=Simple Signing CA, CN=Simple Signing CA
        Validity
            Not Before: Aug 25 03:02:35 2025 GMT
            Not After : Aug 23 03:02:35 2035 GMT
        Subject: DC=org, DC=simple, O=Simple Inc, CN=www.simple.org
        Subject Public Key Info:
            Public Key Algorithm: rsaEncryption
                Public-Key: (2048 bit)
                Modulus:
                    00:c3:7a:9d:cb:1c:e7:26:26:d3:83:5f:d7:8d:a1:
                    89:6a:0a:6a:58:61:68:b0:09:e4:c3:3c:ca:7f:3d:
                    d2:c1:c5:fa:80:f1:ce:59:b0:33:0e:6b:69:3d:55:
                    dd:14:c4:a8:64:a4:ab:25:12:91:e6:2e:c9:c0:ce:
                    39:80:e4:37:c7:71:a9:14:9d:f3:31:9b:e6:0c:63:
                    c1:af:e5:40:5d:51:75:02:dd:e3:5f:3e:70:c0:70:
                    45:ef:fa:c0:1b:5c:02:bd:0f:09:93:fd:16:f1:67:
                    3b:76:62:5b:9d:81:15:a2:a7:63:98:ad:93:5d:f0:
                    6a:03:2d:34:f4:b2:aa:42:f2:ab:0a:f6:03:e4:12:
                    ad:75:f1:72:65:87:3a:10:b4:89:0a:10:32:c8:d0:
                    c8:4c:27:cb:a3:42:12:b3:67:04:74:5c:fb:81:b2:
                    d4:2b:ba:7b:91:2e:c5:73:5a:4e:24:6c:70:c8:db:
                    e8:18:ad:e7:61:45:53:33:a0:89:d6:ff:87:06:d1:
                    c3:e2:6a:2e:4d:6e:79:a5:17:c6:d9:98:93:45:b2:
                    7d:a3:77:61:e9:96:c5:75:33:23:63:19:64:dc:0c:
                    fe:83:19:fc:fc:d2:ac:3d:22:8c:dd:4c:e4:1f:7a:
                    d8:f0:24:31:a2:d0:d8:4c:5a:a0:c0:9f:85:6f:00:
                    c9:fb
                Exponent: 65537 (0x10001)
        X509v3 extensions:
            X509v3 Key Usage: critical
                Digital Signature, Key Encipherment
            X509v3 Basic Constraints: 
                CA:FALSE
            X509v3 Extended Key Usage: 
                TLS Web Server Authentication, TLS Web Client Authentication
            X509v3 Subject Key Identifier: 
                F9:23:E1:5D:B8:D2:F9:FA:A8:98:3F:23:D2:66:20:85:AA:57:E3:76
            X509v3 Authority Key Identifier: 
                2C:BF:83:12:24:F5:47:A5:C6:45:C4:60:CE:1D:42:3D:A5:99:64:DC
            X509v3 Subject Alternative Name: 
                DNS:www.simple.org
    Signature Algorithm: sha256WithRSAEncryption
    Signature Value:
        3e:8c:db:ca:09:99:c2:3b:fb:b3:c3:dc:4e:58:47:1b:33:fa:
        ab:50:72:3e:ee:40:70:9f:db:34:14:7c:c1:60:4d:29:a9:b9:
        ca:4a:8f:f7:10:fa:4f:f7:5d:77:d6:e1:c1:c9:1d:d7:d8:c1:
        c1:3e:e7:e6:50:0e:48:de:1f:5d:95:ea:01:20:06:ae:23:42:
        b1:5a:05:f5:72:03:e6:f7:2d:b7:49:91:fc:8b:18:6a:91:62:
        0d:32:ae:a4:78:5d:d5:9f:88:8d:b0:ca:89:70:62:47:45:ff:
        b2:f2:0e:50:e9:bb:4f:ec:24:c8:99:c4:e1:17:9f:a9:43:e6:
        09:b9:ed:b7:54:db:ab:19:7e:67:2e:ac:0d:61:f6:fd:6d:82:
        12:ee:10:5d:cb:72:2a:3d:62:2b:f8:e1:7e:a9:38:55:2e:92:
        32:50:6c:b1:8a:39:31:68:56:3d:d4:58:32:4f:f2:99:7d:8f:
        23:37:b6:c0:f5:9b:1b:45:eb:09:34:80:3c:ea:2d:fc:e6:29:
        19:74:c2:18:98:4a:0d:ee:2a:80:c2:30:28:f8:72:57:b9:58:
        b6:fb:d7:8c:f6:04:d9:7e:2b:de:fc:3a:27:ee:8a:c8:08:c9:
        90:30:e7:12:f8:97:a5:ef:09:66:ec:5f:e9:22:10:66:3b:3b:
        70:2b:c7:cf
-----BEGIN CERTIFICATE-----
MIID6TCCAtGgAwIBAgIBAjANBgkqhkiG9w0BAQsFADB6MRMwEQYKCZImiZPyLGQB
GRYDb3JnMRYwFAYKCZImiZPyLGQBGRYGc2ltcGxlMRMwEQYDVQQKDApTaW1wbGUg
SW5jMRowGAYDVQQLDBFTaW1wbGUgU2lnbmluZyBDQTEaMBgGA1UEAwwRU2ltcGxl
IFNpZ25pbmcgQ0EwHhcNMjUwODI1MDMwMjM1WhcNMzUwODIzMDMwMjM1WjBbMRMw
EQYKCZImiZPyLGQBGRYDb3JnMRYwFAYKCZImiZPyLGQBGRYGc2ltcGxlMRMwEQYD
VQQKDApTaW1wbGUgSW5jMRcwFQYDVQQDDA53d3cuc2ltcGxlLm9yZzCCASIwDQYJ
KoZIhvcNAQEBBQADggEPADCCAQoCggEBAMN6ncsc5yYm04Nf142hiWoKalhhaLAJ
5MM8yn890sHF+oDxzlmwMw5raT1V3RTEqGSkqyUSkeYuycDOOYDkN8dxqRSd8zGb
5gxjwa/lQF1RdQLd418+cMBwRe/6wBtcAr0PCZP9FvFnO3ZiW52BFaKnY5itk13w
agMtNPSyqkLyqwr2A+QSrXXxcmWHOhC0iQoQMsjQyEwny6NCErNnBHRc+4Gy1Cu6
e5EuxXNaTiRscMjb6Bit52FFUzOgidb/hwbRw+JqLk1ueaUXxtmYk0WyfaN3YemW
xXUzI2MZZNwM/oMZ/PzSrD0ijN1M5B962PAkMaLQ2ExaoMCfhW8AyfsCAwEAAaOB
mDCBlTAOBgNVHQ8BAf8EBAMCBaAwCQYDVR0TBAIwADAdBgNVHSUEFjAUBggrBgEF
BQcDAQYIKwYBBQUHAwIwHQYDVR0OBBYEFPkj4V240vn6qJg/I9JmIIWqV+N2MB8G
A1UdIwQYMBaAFCy/gxIk9UelxkXEYM4dQj2lmWTcMBkGA1UdEQQSMBCCDnd3dy5z
aW1wbGUub3JnMA0GCSqGSIb3DQEBCwUAA4IBAQA+jNvKCZnCO/uzw9xOWEcbM/qr
UHI+7kBwn9s0FHzBYE0pqbnKSo/3EPpP91131uHByR3X2MHBPufmUA5I3h9dleoB
IAauI0KxWgX1cgPm9y23SZH8ixhqkWINMq6keF3Vn4iNsMqJcGJHRf+y8g5Q6btP
7CTImcThF5+pQ+YJue23VNurGX5nLqwNYfb9bYIS7hBdy3IqPWIr+OF+qThVLpIy
UGyxijkxaFY91FgyT/KZfY8jN7bA9ZsbResJNIA86i385ikZdMIYmEoN7iqAwjAo
+HJXuVi2+9eM9gTZfive/Don7orICMmQMOcS+Jel7wlm7F/pIhBmOztwK8fP
-----END CERTIFICATE-----
