Certificate:
    Data:
        Version: 3 (0x2)
        Serial Number: 2 (0x2)
        Signature Algorithm: sha1WithRSAEncryption
        Issuer: DC=org, DC=simple, O=Simple Inc, OU=Simple Signing CA, CN=Simple Signing CA
        Validity
            Not Before: Aug 24 16:51:09 2025 GMT
            Not After : Aug 22 16:51:09 2035 GMT
        Subject: DC=org, DC=simple, O=Simple Inc, CN=Simple User
        Subject Public Key Info:
            Public Key Algorithm: rsaEncryption
                Public-Key: (2048 bit)
                Modulus:
                    00:ed:43:4e:1c:d7:6e:d3:47:ad:be:d9:a8:95:ec:
                    e3:39:ac:61:7a:d5:0b:1a:bc:a8:af:5e:0f:00:2b:
                    fc:df:bd:48:e7:00:79:85:35:c1:76:91:e3:00:34:
                    6b:8d:59:c0:76:42:a3:21:87:41:92:de:5d:ac:a1:
                    d3:8d:b5:cf:c0:7d:e0:f7:34:01:12:e5:1e:b4:0d:
                    9f:48:0b:aa:68:6d:ef:ec:02:9b:9e:5e:f3:fe:a2:
                    88:2f:40:3f:3f:0e:2d:82:96:bd:db:99:79:69:db:
                    36:18:23:f7:17:65:fb:4a:13:77:d3:bf:a0:db:2a:
                    f1:57:d7:6f:ae:bd:05:39:bf:d1:69:40:eb:99:14:
                    97:d8:c9:7d:dc:78:92:fc:9b:2e:f0:14:10:8c:be:
                    78:fc:48:dc:7c:8e:a9:68:0e:4f:48:07:1b:80:9c:
                    f6:ed:1e:80:26:5a:8e:16:cf:1c:e1:81:ab:7b:d2:
                    6f:ee:d1:43:41:de:b2:01:ff:72:76:d4:60:49:00:
                    2c:ea:1a:27:59:7b:07:6a:02:12:b7:e5:e1:11:7c:
                    fe:ea:fe:29:9c:cb:c4:47:8e:0b:7b:44:2e:5f:f0:
                    82:49:81:db:0b:ff:7b:03:3a:7a:3e:c7:2a:7d:57:
                    0c:5a:ba:f0:1c:d8:84:f6:cd:73:43:6b:e3:b7:89:
                    df:fd
                Exponent: 65537 (0x10001)
        X509v3 extensions:
            X509v3 Key Usage: critical
                Digital Signature
            X509v3 Basic Constraints: 
                CA:FALSE
            X509v3 Extended Key Usage: 
                TLS Web Client Authentication
            X509v3 Subject Key Identifier: 
                97:B8:DF:85:07:AE:4D:B5:63:4B:AD:91:81:54:9F:72:9E:09:4A:48
            X509v3 Authority Key Identifier: 
                C8:63:D5:AD:28:36:B0:4F:DE:1B:04:56:B2:C9:D4:8F:05:02:53:2F
            X509v3 Subject Alternative Name: 
                email:simpleuser@simple.org
    Signature Algorithm: sha1WithRSAEncryption
    Signature Value:
        31:9a:3a:2f:4a:64:12:f6:38:2f:f7:b6:53:3e:72:3e:3c:4e:
        a0:3e:b6:64:fe:a5:91:e9:c5:fd:36:0d:50:9a:a8:a2:e5:87:
        06:71:1d:c8:56:07:4e:64:59:2e:c3:38:b6:09:41:fd:80:7a:
        1a:64:9b:ec:3f:8e:bf:d1:f4:ad:05:bf:e2:4c:08:a6:ff:92:
        44:57:86:28:fb:d0:ce:7c:3c:ab:c0:f2:9f:0c:38:d4:99:74:
        1e:dd:dd:32:19:0e:f7:84:14:17:fb:3c:f1:73:8c:fd:e6:d7:
        a6:ae:28:c9:fa:ce:c7:ab:39:4f:f1:d2:8f:b1:dc:0f:2d:81:
        54:6e:2e:3c:a8:f9:43:90:51:44:68:6b:ec:e0:9c:34:ed:50:
        c4:fc:44:9e:41:af:43:63:70:b5:43:ae:63:a7:87:83:45:06:
        5c:71:56:ce:c7:ba:be:c3:4a:5f:31:db:a9:66:4f:9f:d9:e2:
        90:6c:c5:99:25:d8:2b:18:a1:cc:bc:f9:27:b1:d7:e7:01:21:
        c8:5c:6e:3e:87:0e:24:fd:41:3b:2a:36:14:2c:8a:2f:98:b7:
        63:f0:71:4b:37:9e:2f:3a:9e:3b:d0:79:5d:47:0a:11:96:08:
        3e:d8:29:78:56:2b:67:65:73:1a:01:eb:88:06:76:be:9e:d6:
        ba:d1:f7:54
-----BEGIN CERTIFICATE-----
MIID4zCCAsugAwIBAgIBAjANBgkqhkiG9w0BAQUFADB6MRMwEQYKCZImiZPyLGQB
GRYDb3JnMRYwFAYKCZImiZPyLGQBGRYGc2ltcGxlMRMwEQYDVQQKDApTaW1wbGUg
SW5jMRowGAYDVQQLDBFTaW1wbGUgU2lnbmluZyBDQTEaMBgGA1UEAwwRU2ltcGxl
IFNpZ25pbmcgQ0EwHhcNMjUwODI0MTY1MTA5WhcNMzUwODIyMTY1MTA5WjBYMRMw
EQYKCZImiZPyLGQBGRYDb3JnMRYwFAYKCZImiZPyLGQBGRYGc2ltcGxlMRMwEQYD
VQQKDApTaW1wbGUgSW5jMRQwEgYDVQQDDAtTaW1wbGUgVXNlcjCCASIwDQYJKoZI
hvcNAQEBBQADggEPADCCAQoCggEBAO1DThzXbtNHrb7ZqJXs4zmsYXrVCxq8qK9e
DwAr/N+9SOcAeYU1wXaR4wA0a41ZwHZCoyGHQZLeXayh0421z8B94Pc0ARLlHrQN
n0gLqmht7+wCm55e8/6iiC9APz8OLYKWvduZeWnbNhgj9xdl+0oTd9O/oNsq8VfX
b669BTm/0WlA65kUl9jJfdx4kvybLvAUEIy+ePxI3HyOqWgOT0gHG4Cc9u0egCZa
jhbPHOGBq3vSb+7RQ0HesgH/cnbUYEkALOoaJ1l7B2oCErfl4RF8/ur+KZzLxEeO
C3tELl/wgkmB2wv/ewM6ej7HKn1XDFq68BzYhPbNc0Nr47eJ3/0CAwEAAaOBlTCB
kjAOBgNVHQ8BAf8EBAMCB4AwCQYDVR0TBAIwADATBgNVHSUEDDAKBggrBgEFBQcD
AjAdBgNVHQ4EFgQUl7jfhQeuTbVjS62RgVSfcp4JSkgwHwYDVR0jBBgwFoAUyGPV
rSg2sE/eGwRWssnUjwUCUy8wIAYDVR0RBBkwF4EVc2ltcGxldXNlckBzaW1wbGUu
b3JnMA0GCSqGSIb3DQEBBQUAA4IBAQAxmjovSmQS9jgv97ZTPnI+PE6gPrZk/qWR
6cX9Ng1Qmqii5YcGcR3IVgdOZFkuwzi2CUH9gHoaZJvsP46/0fStBb/iTAim/5JE
V4Yo+9DOfDyrwPKfDDjUmXQe3d0yGQ73hBQX+zzxc4z95temrijJ+s7HqzlP8dKP
sdwPLYFUbi48qPlDkFFEaGvs4Jw07VDE/ESeQa9DY3C1Q65jp4eDRQZccVbOx7q+
w0pfMdupZk+f2eKQbMWZJdgrGKHMvPknsdfnASHIXG4+hw4k/UE7KjYULIovmLdj
8HFLN54vOp470HldRwoRlgg+2Cl4VitnZXMaAeuIBna+nta60fdU
-----END CERTIFICATE-----
