Certificate:
    Data:
        Version: 3 (0x2)
        Serial Number: 1 (0x1)
        Signature Algorithm: sha256WithRSAEncryption
        Issuer: DC=org, DC=simple, O=Simple Inc, OU=Simple Root CA, CN=Simple Root CA
        Validity
            Not Before: Aug 25 03:00:39 2025 GMT
            Not After : Aug 25 03:00:39 2035 GMT
        Subject: DC=org, DC=simple, O=Simple Inc, OU=Simple Root CA, CN=Simple Root CA
        Subject Public Key Info:
            Public Key Algorithm: rsaEncryption
                Public-Key: (2048 bit)
                Modulus:
                    00:9c:8e:cd:9f:72:e4:9b:f5:ad:50:8a:9a:14:0f:
                    8c:c1:f4:99:ce:78:bf:0b:1b:3c:bd:fb:0d:48:50:
                    59:96:af:e1:f1:6d:41:1f:ac:a6:be:46:17:c9:c9:
                    71:3c:46:9e:eb:94:50:5a:40:2a:7d:e8:fa:39:d5:
                    d9:d0:2e:03:8e:e5:dd:be:7b:50:ea:96:26:55:9c:
                    ea:0c:95:5d:7d:8e:d0:e7:c8:d7:21:90:7e:ce:07:
                    07:3b:c5:4e:b4:3b:13:01:5d:f8:e2:c9:67:65:2a:
                    6d:e3:21:91:2c:5d:a1:f9:1e:04:9a:e4:84:d1:e6:
                    23:11:c6:a1:68:b8:5f:40:ff:0c:e2:62:5f:aa:8e:
                    0b:3b:b9:70:ce:91:12:4d:83:f4:39:9a:3c:3c:9e:
                    1e:41:4d:cd:44:03:a8:0e:da:74:d6:39:0e:99:0a:
                    f8:69:2c:23:b0:5b:22:d6:09:d1:3a:44:72:40:36:
                    57:ea:b6:8f:02:87:c2:55:01:2e:bc:9d:22:f0:88:
                    0b:21:22:34:25:20:3b:a2:03:ce:5d:0a:02:32:e0:
                    a5:e6:88:a4:f2:9f:4f:04:02:e0:de:36:c5:52:96:
                    47:36:02:56:e6:e5:61:05:fa:6a:e7:9c:ab:9a:94:
                    1a:62:ae:3e:24:95:42:0d:2f:2d:27:eb:3d:f1:a4:
                    08:e5
                Exponent: 65537 (0x10001)
        X509v3 extensions:
            X509v3 Key Usage: critical
                Certificate Sign, CRL Sign
            X509v3 Basic Constraints: critical
                CA:TRUE
            X509v3 Subject Key Identifier: 
                F9:37:23:A5:43:77:9E:CE:E9:99:83:56:7C:CD:05:E2:75:E2:B1:DF
            X509v3 Authority Key Identifier: 
                F9:37:23:A5:43:77:9E:CE:E9:99:83:56:7C:CD:05:E2:75:E2:B1:DF
    Signature Algorithm: sha256WithRSAEncryption
    Signature Value:
        19:2c:0a:1c:ce:ab:b0:20:b5:01:e3:29:11:6f:e9:df:8c:c1:
        06:4f:03:37:73:84:b6:c8:9f:04:94:c9:a1:58:14:a3:f6:4a:
        59:2a:72:24:e8:e8:0d:25:49:ce:34:9f:58:43:2f:60:e5:18:
        74:a4:80:5d:88:8f:fd:47:27:8e:9a:4a:1c:fe:d3:e6:62:d1:
        90:26:41:a4:be:7d:db:d2:71:05:52:02:50:12:2b:c5:92:f0:
        1b:9e:3e:43:18:96:f4:fa:43:82:74:59:b5:7f:96:a4:90:e6:
        71:3b:5b:aa:0b:2b:22:88:54:1a:fd:f8:7f:8c:46:8c:78:fb:
        2d:6d:1c:34:d1:e4:74:82:08:db:61:40:e0:93:85:33:08:09:
        53:58:4f:1b:9d:6b:26:e6:66:1a:fb:63:d1:fc:60:b2:35:7e:
        83:5a:09:5e:8b:53:db:dc:cf:e0:9c:13:2c:79:4b:04:c8:4a:
        a1:c7:ae:1b:99:b9:ed:71:39:b3:eb:60:5c:52:20:b1:fd:50:
        a7:88:bf:fa:f1:15:15:6c:4c:1e:82:80:d5:4a:51:46:ab:a6:
        52:1e:b5:93:26:45:b3:3f:b8:e2:dd:8f:64:50:06:87:20:78:
        b8:e9:75:cd:95:ec:17:ea:d5:02:0f:69:c4:e0:27:4a:d1:75:
        90:ad:62:a9
-----BEGIN CERTIFICATE-----
MIIDxjCCAq6gAwIBAgIBATANBgkqhkiG9w0BAQsFADB0MRMwEQYKCZImiZPyLGQB
GRYDb3JnMRYwFAYKCZImiZPyLGQBGRYGc2ltcGxlMRMwEQYDVQQKDApTaW1wbGUg
SW5jMRcwFQYDVQQLDA5TaW1wbGUgUm9vdCBDQTEXMBUGA1UEAwwOU2ltcGxlIFJv
b3QgQ0EwHhcNMjUwODI1MDMwMDM5WhcNMzUwODI1MDMwMDM5WjB0MRMwEQYKCZIm
iZPyLGQBGRYDb3JnMRYwFAYKCZImiZPyLGQBGRYGc2ltcGxlMRMwEQYDVQQKDApT
aW1wbGUgSW5jMRcwFQYDVQQLDA5TaW1wbGUgUm9vdCBDQTEXMBUGA1UEAwwOU2lt
cGxlIFJvb3QgQ0EwggEiMA0GCSqGSIb3DQEBAQUAA4IBDwAwggEKAoIBAQCcjs2f
cuSb9a1QipoUD4zB9JnOeL8LGzy9+w1IUFmWr+HxbUEfrKa+RhfJyXE8Rp7rlFBa
QCp96Po51dnQLgOO5d2+e1DqliZVnOoMlV19jtDnyNchkH7OBwc7xU60OxMBXfji
yWdlKm3jIZEsXaH5HgSa5ITR5iMRxqFouF9A/wziYl+qjgs7uXDOkRJNg/Q5mjw8
nh5BTc1EA6gO2nTWOQ6ZCvhpLCOwWyLWCdE6RHJANlfqto8Ch8JVAS68nSLwiAsh
IjQlIDuiA85dCgIy4KXmiKTyn08EAuDeNsVSlkc2Albm5WEF+mrnnKualBpirj4k
lUINLy0n6z3xpAjlAgMBAAGjYzBhMA4GA1UdDwEB/wQEAwIBBjAPBgNVHRMBAf8E
BTADAQH/MB0GA1UdDgQWBBT5NyOlQ3eezumZg1Z8zQXideKx3zAfBgNVHSMEGDAW
gBT5NyOlQ3eezumZg1Z8zQXideKx3zANBgkqhkiG9w0BAQsFAAOCAQEAGSwKHM6r
sCC1AeMpEW/p34zBBk8DN3OEtsifBJTJoVgUo/ZKWSpyJOjoDSVJzjSfWEMvYOUY
dKSAXYiP/UcnjppKHP7T5mLRkCZBpL5929JxBVICUBIrxZLwG54+QxiW9PpDgnRZ
tX+WpJDmcTtbqgsrIohUGv34f4xGjHj7LW0cNNHkdIII22FA4JOFMwgJU1hPG51r
JuZmGvtj0fxgsjV+g1oJXotT29zP4JwTLHlLBMhKoceuG5m57XE5s+tgXFIgsf1Q
p4i/+vEVFWxMHoKA1UpRRqumUh61kyZFsz+44t2PZFAGhyB4uOl1zZXsF+rVAg9p
xOAnStF1kK1iqQ==
-----END CERTIFICATE-----
