Certificate:
    Data:
        Version: 3 (0x2)
        Serial Number: 2 (0x2)
        Signature Algorithm: sha256WithRSAEncryption
        Issuer: DC=org, DC=simple, O=Simple Inc, OU=Simple Root CA, CN=Simple Root CA
        Validity
            Not Before: Aug 25 03:00:54 2025 GMT
            Not After : Aug 25 03:00:54 2035 GMT
        Subject: DC=org, DC=simple, O=Simple Inc, OU=Simple Signing CA, CN=Simple Signing CA
        Subject Public Key Info:
            Public Key Algorithm: rsaEncryption
                Public-Key: (2048 bit)
                Modulus:
                    00:e8:dd:30:17:48:99:0f:90:f2:69:64:b4:22:f6:
                    19:c5:b2:9b:e1:f8:d8:e7:0a:88:cc:77:0b:a1:2c:
                    d6:24:1e:3a:a2:ed:e3:1c:a8:a2:c7:ca:6b:fa:18:
                    90:2d:66:99:1b:2b:de:fc:1b:bb:54:d9:5c:ac:8b:
                    3f:ee:44:9e:f2:91:73:d9:58:3f:df:fd:33:d4:80:
                    8d:ab:8f:3f:0f:57:d7:8e:cc:fa:27:9c:eb:31:36:
                    1b:1f:2e:2e:68:2f:7c:8f:3a:76:3a:f1:81:29:85:
                    da:77:e1:90:2a:75:ac:04:a6:98:91:ee:87:c9:e1:
                    82:61:db:04:8f:59:9f:60:74:8c:60:c3:e9:8a:d7:
                    13:86:b0:44:e4:d8:70:8c:20:fd:80:b1:60:e7:1e:
                    63:74:84:5a:f9:de:a0:79:d0:fc:88:92:c2:1d:c4:
                    47:f5:9a:e1:f0:36:4a:ea:5e:f3:a5:63:43:aa:37:
                    1e:43:3b:9a:da:af:98:0a:af:a8:1c:3c:a0:a1:f0:
                    dc:2d:69:1b:a2:26:89:00:20:98:30:a7:2f:3d:b9:
                    6c:3f:62:4a:0f:ed:86:cb:f7:74:ee:d6:1d:6f:f7:
                    36:e6:6d:4a:c7:50:cc:0a:56:51:11:31:3e:d4:b4:
                    60:f5:1e:05:ae:aa:f6:ee:0a:2f:c3:7b:0d:5f:83:
                    c1:ab
                Exponent: 65537 (0x10001)
        X509v3 extensions:
            X509v3 Key Usage: critical
                Certificate Sign, CRL Sign
            X509v3 Basic Constraints: critical
                CA:TRUE, pathlen:0
            X509v3 Subject Key Identifier: 
                2C:BF:83:12:24:F5:47:A5:C6:45:C4:60:CE:1D:42:3D:A5:99:64:DC
            X509v3 Authority Key Identifier: 
                F9:37:23:A5:43:77:9E:CE:E9:99:83:56:7C:CD:05:E2:75:E2:B1:DF
    Signature Algorithm: sha256WithRSAEncryption
    Signature Value:
        47:e1:1b:b0:cb:31:e9:5c:99:37:e3:49:84:75:02:f4:6a:a6:
        68:5f:7b:18:a1:3a:aa:99:60:f2:eb:ba:42:6e:51:6e:40:1e:
        49:ee:6a:be:9d:be:01:a0:65:c5:26:6a:27:be:48:bf:e7:7a:
        03:36:09:cb:f8:7c:09:3f:4c:32:45:97:33:ad:cc:a7:af:ec:
        51:f2:ef:aa:fe:ce:17:7f:b9:95:66:89:98:81:8c:f1:6e:7e:
        cd:27:e0:53:0b:c4:74:36:80:77:80:75:eb:5e:f4:f2:46:57:
        4e:82:9f:ec:16:01:3e:9b:ce:07:97:ea:a7:3b:cd:00:0a:37:
        04:f6:2d:b2:6c:e8:d9:57:0d:5e:98:a6:77:50:34:6c:a3:24:
        a0:f8:26:4a:f0:26:43:40:8b:7a:c1:06:80:33:59:e1:54:b1:
        0f:d9:71:a4:07:43:70:11:b9:17:c9:45:3d:3e:96:05:da:44:
        9b:05:10:87:7c:37:de:87:ca:c3:43:a6:2e:2f:d0:57:6a:66:
        67:b6:93:3e:7d:b7:11:3b:a7:43:95:0e:5a:e4:7b:a3:38:86:
        97:71:63:67:bf:90:22:37:82:cc:d7:d3:c0:94:97:b0:11:8f:
        ea:ea:0e:29:09:e3:ac:91:c7:58:1f:a0:27:3f:6e:bd:e6:bd:
        6f:a8:c5:0f
-----BEGIN CERTIFICATE-----
MIIDzzCCAregAwIBAgIBAjANBgkqhkiG9w0BAQsFADB0MRMwEQYKCZImiZPyLGQB
GRYDb3JnMRYwFAYKCZImiZPyLGQBGRYGc2ltcGxlMRMwEQYDVQQKDApTaW1wbGUg
SW5jMRcwFQYDVQQLDA5TaW1wbGUgUm9vdCBDQTEXMBUGA1UEAwwOU2ltcGxlIFJv
b3QgQ0EwHhcNMjUwODI1MDMwMDU0WhcNMzUwODI1MDMwMDU0WjB6MRMwEQYKCZIm
iZPyLGQBGRYDb3JnMRYwFAYKCZImiZPyLGQBGRYGc2ltcGxlMRMwEQYDVQQKDApT
aW1wbGUgSW5jMRowGAYDVQQLDBFTaW1wbGUgU2lnbmluZyBDQTEaMBgGA1UEAwwR
U2ltcGxlIFNpZ25pbmcgQ0EwggEiMA0GCSqGSIb3DQEBAQUAA4IBDwAwggEKAoIB
AQDo3TAXSJkPkPJpZLQi9hnFspvh+NjnCojMdwuhLNYkHjqi7eMcqKLHymv6GJAt
ZpkbK978G7tU2Vysiz/uRJ7ykXPZWD/f/TPUgI2rjz8PV9eOzPonnOsxNhsfLi5o
L3yPOnY68YEphdp34ZAqdawEppiR7ofJ4YJh2wSPWZ9gdIxgw+mK1xOGsETk2HCM
IP2AsWDnHmN0hFr53qB50PyIksIdxEf1muHwNkrqXvOlY0OqNx5DO5rar5gKr6gc
PKCh8NwtaRuiJokAIJgwpy89uWw/YkoP7YbL93Tu1h1v9zbmbUrHUMwKVlERMT7U
tGD1HgWuqvbuCi/Dew1fg8GrAgMBAAGjZjBkMA4GA1UdDwEB/wQEAwIBBjASBgNV
HRMBAf8ECDAGAQH/AgEAMB0GA1UdDgQWBBQsv4MSJPVHpcZFxGDOHUI9pZlk3DAf
BgNVHSMEGDAWgBT5NyOlQ3eezumZg1Z8zQXideKx3zANBgkqhkiG9w0BAQsFAAOC
AQEAR+EbsMsx6VyZN+NJhHUC9GqmaF97GKE6qplg8uu6Qm5RbkAeSe5qvp2+AaBl
xSZqJ75Iv+d6AzYJy/h8CT9MMkWXM63Mp6/sUfLvqv7OF3+5lWaJmIGM8W5+zSfg
UwvEdDaAd4B161708kZXToKf7BYBPpvOB5fqpzvNAAo3BPYtsmzo2VcNXpimd1A0
bKMkoPgmSvAmQ0CLesEGgDNZ4VSxD9lxpAdDcBG5F8lFPT6WBdpEmwUQh3w33ofK
w0OmLi/QV2pmZ7aTPn23ETunQ5UOWuR7oziGl3FjZ7+QIjeCzNfTwJSXsBGP6uoO
KQnjrJHHWB+gJz9uvea9b6jFDw==
-----END CERTIFICATE-----
