Certificate:
    Data:
        Version: 3 (0x2)
        Serial Number: 2 (0x2)
        Signature Algorithm: sha1WithRSAEncryption
        Issuer: DC=org, DC=simple, O=Simple Inc, OU=Simple Root CA, CN=Simple Root CA
        Validity
            Not Before: Aug 24 16:44:37 2025 GMT
            Not After : Aug 24 16:44:37 2035 GMT
        Subject: DC=org, DC=simple, O=Simple Inc, OU=Simple Signing CA, CN=Simple Signing CA
        Subject Public Key Info:
            Public Key Algorithm: rsaEncryption
                Public-Key: (2048 bit)
                Modulus:
                    00:cb:28:f2:c1:03:2a:f7:ec:b0:1c:a0:d5:f9:e5:
                    79:bf:3c:1b:b8:83:4f:66:a8:66:af:7f:40:0c:26:
                    aa:e5:83:0c:0d:06:07:ed:d8:f2:52:55:ee:40:4d:
                    5d:3c:dd:94:aa:fa:79:9e:a9:86:8c:bf:36:f4:8f:
                    45:db:ac:2b:55:01:fc:56:92:82:a5:54:63:52:90:
                    a0:c0:a9:1f:fb:15:42:21:ae:2e:a5:7c:82:36:29:
                    90:0d:20:dd:09:78:f9:3e:9b:5b:d0:9e:7d:2c:b9:
                    7c:e7:04:88:c1:15:28:89:23:e8:99:85:2c:b6:44:
                    15:be:99:5e:88:88:6e:07:44:2e:47:1c:4c:f8:2b:
                    b3:63:44:46:41:c6:3e:8d:aa:50:e3:0a:91:f6:71:
                    6a:f6:5d:80:72:61:bb:21:11:e7:66:3c:a4:b6:26:
                    22:78:a8:ad:73:b8:5d:e5:95:b2:4e:e4:e2:08:b6:
                    c6:dc:af:8f:83:92:c1:b8:b2:2b:13:41:29:a4:df:
                    62:9c:42:24:63:2e:35:f7:57:e6:5e:a6:b0:79:a2:
                    8c:ad:9c:5f:85:6b:6f:07:c3:34:4a:b3:67:83:d9:
                    e3:4a:08:18:51:28:d1:81:a4:1e:ca:7c:ce:7c:7a:
                    0e:7d:ae:36:5e:57:f8:88:93:eb:35:37:b9:22:1b:
                    7a:1d
                Exponent: 65537 (0x10001)
        X509v3 extensions:
            X509v3 Key Usage: critical
                Certificate Sign, CRL Sign
            X509v3 Basic Constraints: critical
                CA:TRUE, pathlen:0
            X509v3 Subject Key Identifier: 
                C8:63:D5:AD:28:36:B0:4F:DE:1B:04:56:B2:C9:D4:8F:05:02:53:2F
            X509v3 Authority Key Identifier: 
                B8:62:B2:EA:5E:62:0F:5C:AA:83:F6:66:13:FD:93:B1:DF:ED:60:74
    Signature Algorithm: sha1WithRSAEncryption
    Signature Value:
        57:5e:c1:e6:7c:7f:d0:4d:9f:f5:88:f5:47:c2:32:cd:fa:86:
        35:8f:23:47:41:67:e3:97:ba:62:0d:e1:85:d2:bb:b9:49:77:
        b0:a9:c9:32:cd:a9:65:f3:aa:52:c6:c3:02:f7:2b:5a:b6:a2:
        32:86:d8:4a:56:f2:86:49:2f:6e:48:da:0b:83:a7:2a:7c:8b:
        ce:51:0d:1d:81:c5:4f:54:38:57:c8:db:95:c4:c2:a2:4a:62:
        0c:37:46:fa:95:82:a5:16:80:40:09:5c:99:2b:68:76:3e:e4:
        6b:4a:72:a9:0a:06:e6:a1:b4:f3:b7:90:b6:7b:b3:0c:56:c9:
        05:f9:02:4a:bd:ff:8f:6c:7c:6c:d1:27:62:a5:8a:cd:63:8f:
        35:cd:e7:c0:1b:02:1c:2a:ba:e9:a0:2a:85:cc:67:f9:21:3a:
        4e:83:d9:53:4e:7e:8d:5e:30:ab:f0:7b:97:44:51:22:1d:c3:
        16:8d:88:54:eb:b2:97:e0:60:cc:bc:e3:f4:d3:1d:e7:31:10:
        a8:5a:40:2b:d2:90:80:da:ba:0e:88:4a:72:d0:c8:b7:ef:14:
        f8:34:ef:47:24:68:8d:c4:c6:26:be:63:8d:1a:74:9d:a2:10:
        7b:6f:72:84:59:fc:0a:f3:56:52:2c:7e:ab:7b:58:9b:94:37:
        10:d5:6c:d7
-----BEGIN CERTIFICATE-----
MIIDzzCCAregAwIBAgIBAjANBgkqhkiG9w0BAQUFADB0MRMwEQYKCZImiZPyLGQB
GRYDb3JnMRYwFAYKCZImiZPyLGQBGRYGc2ltcGxlMRMwEQYDVQQKDApTaW1wbGUg
SW5jMRcwFQYDVQQLDA5TaW1wbGUgUm9vdCBDQTEXMBUGA1UEAwwOU2ltcGxlIFJv
b3QgQ0EwHhcNMjUwODI0MTY0NDM3WhcNMzUwODI0MTY0NDM3WjB6MRMwEQYKCZIm
iZPyLGQBGRYDb3JnMRYwFAYKCZImiZPyLGQBGRYGc2ltcGxlMRMwEQYDVQQKDApT
aW1wbGUgSW5jMRowGAYDVQQLDBFTaW1wbGUgU2lnbmluZyBDQTEaMBgGA1UEAwwR
U2ltcGxlIFNpZ25pbmcgQ0EwggEiMA0GCSqGSIb3DQEBAQUAA4IBDwAwggEKAoIB
AQDLKPLBAyr37LAcoNX55Xm/PBu4g09mqGavf0AMJqrlgwwNBgft2PJSVe5ATV08
3ZSq+nmeqYaMvzb0j0XbrCtVAfxWkoKlVGNSkKDAqR/7FUIhri6lfII2KZANIN0J
ePk+m1vQnn0suXznBIjBFSiJI+iZhSy2RBW+mV6IiG4HRC5HHEz4K7NjREZBxj6N
qlDjCpH2cWr2XYByYbshEedmPKS2JiJ4qK1zuF3llbJO5OIItsbcr4+DksG4sisT
QSmk32KcQiRjLjX3V+ZeprB5ooytnF+Fa28HwzRKs2eD2eNKCBhRKNGBpB7KfM58
eg59rjZeV/iIk+s1N7kiG3odAgMBAAGjZjBkMA4GA1UdDwEB/wQEAwIBBjASBgNV
HRMBAf8ECDAGAQH/AgEAMB0GA1UdDgQWBBTIY9WtKDawT94bBFayydSPBQJTLzAf
BgNVHSMEGDAWgBS4YrLqXmIPXKqD9mYT/ZOx3+1gdDANBgkqhkiG9w0BAQUFAAOC
AQEAV17B5nx/0E2f9Yj1R8IyzfqGNY8jR0Fn45e6Yg3hhdK7uUl3sKnJMs2pZfOq
UsbDAvcrWraiMobYSlbyhkkvbkjaC4OnKnyLzlENHYHFT1Q4V8jblcTCokpiDDdG
+pWCpRaAQAlcmStodj7ka0pyqQoG5qG087eQtnuzDFbJBfkCSr3/j2x8bNEnYqWK
zWOPNc3nwBsCHCq66aAqhcxn+SE6ToPZU05+jV4wq/B7l0RRIh3DFo2IVOuyl+Bg
zLzj9NMd5zEQqFpAK9KQgNq6DohKctDIt+8U+DTvRyRojcTGJr5jjRp0naIQe29y
hFn8CvNWUix+q3tYm5Q3ENVs1w==
-----END CERTIFICATE-----
